target datalayout = "e-m:e-p270:32:32-p271:32:32-p272:64:64-i64:64-i128:128-f80:128-n8:16:32:64-S128"
target triple = "x86_64-pc-linux-gnu"

%struct._xmlURI = type { ptr, ptr, ptr, ptr, ptr, i32, ptr, ptr, ptr, i32, ptr }
%struct._xmlOutputBuffer = type { ptr, ptr, ptr, ptr, ptr, ptr, i32, i32 }

@xmlFree = external global ptr, align 8
@.str.73 = private unnamed_addr constant [4 x i8] c"%00\00", align 1
@.str.74 = private unnamed_addr constant [47 x i8] c"URI must not contain percent-encoded NUL bytes\00", align 1
@.str.75 = private unnamed_addr constant [3 x i8] c"wb\00", align 1

; Function Attrs: nounwind uwtable
define internal ptr @php_libxml_streams_IO_open_write_wrapper(ptr noundef %0) #0 {
  %2 = alloca ptr, align 8
  store ptr %0, ptr %2, align 8
  %3 = load ptr, ptr %2, align 8
  %4 = call ptr @php_libxml_streams_IO_open_wrapper(ptr noundef %3, ptr noundef @.str.75, i32 noundef 0)
  ret ptr %4
}

; Function Attrs: nounwind uwtable
define internal ptr @php_libxml_output_buffer_create_filename(ptr noundef %0, ptr noundef %1, i32 noundef %2) #0 {
  %4 = alloca ptr, align 8
  %5 = alloca ptr, align 8
  %6 = alloca ptr, align 8
  %7 = alloca i32, align 4
  %8 = alloca ptr, align 8
  %9 = alloca ptr, align 8
  %10 = alloca ptr, align 8
  %11 = alloca ptr, align 8
  store ptr %0, ptr %5, align 8
  store ptr %1, ptr %6, align 8
  store i32 %2, ptr %7, align 4
  store ptr null, ptr %10, align 8
  store ptr null, ptr %11, align 8
  %12 = load ptr, ptr %5, align 8
  %13 = icmp eq ptr %12, null
  br i1 %13, label %14, label %15

14:                                               ; preds = %3
  store ptr null, ptr %4, align 8
  br label %68

15:                                               ; preds = %3
  %16 = load ptr, ptr %5, align 8
  %17 = call ptr @strstr(ptr noundef %16, ptr noundef @.str.73) #10
  %18 = icmp ne ptr %17, null
  br i1 %18, label %19, label %20

19:                                               ; preds = %15
  call void (ptr, i32, ptr, ...) @php_error_docref(ptr noundef null, i32 noundef 2, ptr noundef @.str.74)
  store ptr null, ptr %4, align 8
  br label %68

20:                                               ; preds = %15
  %21 = load ptr, ptr %5, align 8
  %22 = call ptr @xmlParseURI(ptr noundef %21)
  store ptr %22, ptr %9, align 8
  %23 = load ptr, ptr %9, align 8
  %24 = icmp ne ptr %23, null
  br i1 %24, label %25, label %35

25:                                               ; preds = %20
  %26 = load ptr, ptr %9, align 8
  %27 = getelementptr inbounds %struct._xmlURI, ptr %26, i32 0, i32 0
  %28 = load ptr, ptr %27, align 8
  %29 = icmp ne ptr %28, null
  br i1 %29, label %30, label %33

30:                                               ; preds = %25
  %31 = load ptr, ptr %5, align 8
  %32 = call ptr @xmlURIUnescapeString(ptr noundef %31, i32 noundef 0, ptr noundef null)
  store ptr %32, ptr %11, align 8
  br label %33

33:                                               ; preds = %30, %25
  %34 = load ptr, ptr %9, align 8
  call void @xmlFreeURI(ptr noundef %34)
  br label %35

35:                                               ; preds = %33, %20
  %36 = load ptr, ptr %11, align 8
  %37 = icmp ne ptr %36, null
  br i1 %37, label %38, label %43

38:                                               ; preds = %35
  %39 = load ptr, ptr %11, align 8
  %40 = call ptr @php_libxml_streams_IO_open_write_wrapper(ptr noundef %39)
  store ptr %40, ptr %10, align 8
  %41 = load ptr, ptr @xmlFree, align 8
  %42 = load ptr, ptr %11, align 8
  call void %41(ptr noundef %42)
  br label %43

43:                                               ; preds = %38, %35
  %44 = load ptr, ptr %10, align 8
  %45 = icmp eq ptr %44, null
  br i1 %45, label %46, label %49

46:                                               ; preds = %43
  %47 = load ptr, ptr %5, align 8
  %48 = call ptr @php_libxml_streams_IO_open_write_wrapper(ptr noundef %47)
  store ptr %48, ptr %10, align 8
  br label %49

49:                                               ; preds = %46, %43
  %50 = load ptr, ptr %10, align 8
  %51 = icmp eq ptr %50, null
  br i1 %51, label %52, label %53

52:                                               ; preds = %49
  store ptr null, ptr %4, align 8
  br label %68

53:                                               ; preds = %49
  %54 = load ptr, ptr %6, align 8
  %55 = call ptr @xmlAllocOutputBuffer(ptr noundef %54)
  store ptr %55, ptr %8, align 8
  %56 = load ptr, ptr %8, align 8
  %57 = icmp ne ptr %56, null
  br i1 %57, label %58, label %66

58:                                               ; preds = %53
  %59 = load ptr, ptr %10, align 8
  %60 = load ptr, ptr %8, align 8
  %61 = getelementptr inbounds %struct._xmlOutputBuffer, ptr %60, i32 0, i32 0
  store ptr %59, ptr %61, align 8
  %62 = load ptr, ptr %8, align 8
  %63 = getelementptr inbounds %struct._xmlOutputBuffer, ptr %62, i32 0, i32 1
  store ptr @php_libxml_streams_IO_write, ptr %63, align 8
  %64 = load ptr, ptr %8, align 8
  %65 = getelementptr inbounds %struct._xmlOutputBuffer, ptr %64, i32 0, i32 2
  store ptr @php_libxml_streams_IO_close, ptr %65, align 8
  br label %66

66:                                               ; preds = %58, %53
  %67 = load ptr, ptr %8, align 8
  store ptr %67, ptr %4, align 8
  br label %68

68:                                               ; preds = %66, %52, %19, %14
  %69 = load ptr, ptr %4, align 8
  ret ptr %69
}