; Function Attrs: nounwind uwtable
define internal ptr @php_libxml_output_buffer_create_filename(ptr noundef %0, ptr noundef %1, i32 %2) #0 {
  %4 = icmp eq ptr %0, null
  br i1 %4, label %24, label %5

5:                                                ; preds = %3
  %6 = tail call ptr @strstr(ptr noundef nonnull dereferenceable(1) %0, ptr noundef nonnull dereferenceable(1) @.str.73) #19
  %.not = icmp eq ptr %6, null
  br i1 %.not, label %8, label %7

7:                                                ; preds = %5
  tail call void (ptr, i32, ptr, ...) @php_error_docref(ptr noundef null, i32 noundef 2, ptr noundef nonnull @.str.74) #17
  br label %24

8:                                                ; preds = %5
  %9 = tail call ptr @xmlParseURI(ptr noundef nonnull %0) #17
  %.not27 = icmp eq ptr %9, null
  br i1 %.not27, label %.thread36, label %10

10:                                               ; preds = %8
  %11 = load ptr, ptr %9, align 8
  %.not28 = icmp eq ptr %11, null
  br i1 %.not28, label %.thread33, label %12

.thread33:                                        ; preds = %10
  tail call void @xmlFreeURI(ptr noundef nonnull %9) #17
  br label %.thread36

12:                                               ; preds = %10
  %13 = tail call ptr @xmlURIUnescapeString(ptr noundef nonnull %0, i32 noundef 0, ptr noundef null) #17
  tail call void @xmlFreeURI(ptr noundef nonnull %9) #17
  %.not29 = icmp eq ptr %13, null
  br i1 %.not29, label %.thread36, label %14

14:                                               ; preds = %12
  %15 = tail call fastcc ptr @php_libxml_streams_IO_open_wrapper(ptr noundef nonnull %13, ptr noundef nonnull @.str.75, i32 noundef 0)
  %16 = load ptr, ptr @xmlFree, align 8
  tail call void %16(ptr noundef nonnull %13) #17
  %17 = icmp eq ptr %15, null
  br i1 %17, label %.thread36, label %.thread38

.thread36:                                        ; preds = %8, %.thread33, %12, %14
  %18 = tail call fastcc ptr @php_libxml_streams_IO_open_wrapper(ptr noundef nonnull %0, ptr noundef nonnull @.str.75, i32 noundef 0)
  %19 = icmp eq ptr %18, null
  br i1 %19, label %24, label %.thread38

.thread38:                                        ; preds = %14, %.thread36
  %.12240 = phi ptr [ %18, %.thread36 ], [ %15, %14 ]
  %20 = tail call ptr @xmlAllocOutputBuffer(ptr noundef %1) #17
  %.not30 = icmp eq ptr %20, null
  br i1 %.not30, label %24, label %21

21:                                               ; preds = %.thread38
  store ptr %.12240, ptr %20, align 8
  %22 = getelementptr inbounds i8, ptr %20, i64 8
  store ptr @php_libxml_streams_IO_write, ptr %22, align 8
  %23 = getelementptr inbounds i8, ptr %20, i64 16
  store ptr @php_libxml_streams_IO_close, ptr %23, align 8
  br label %24

24:                                               ; preds = %.thread38, %21, %.thread36, %3, %7
  %.023 = phi ptr [ null, %7 ], [ null, %3 ], [ null, %.thread36 ], [ %20, %21 ], [ null, %.thread38 ]
  ret ptr %.023
}